target datalayout = "e-m:e-p270:32:32-p271:32:32-p272:64:64-i64:64-i128:128-f80:128-n8:16:32:64-S128"
target triple = "x86_64-pc-linux-gnu"

@hf_uint64_response = internal global i32 0, align 4

; Function Attrs: null_pointer_is_valid sspstrong uwtable
define internal i32 @incr_dissector(ptr noundef %0, ptr noundef %1, i32 noundef %2) #0 {
  %4 = alloca i32, align 4
  %5 = alloca ptr, align 8
  %6 = alloca ptr, align 8
  %7 = alloca i32, align 4
  %8 = alloca i32, align 4
  %9 = alloca i32, align 4
  %10 = alloca ptr, align 8
  %11 = alloca ptr, align 8
  %12 = alloca ptr, align 8
  %13 = alloca i32, align 4
  %14 = alloca i32, align 4
  store ptr %0, ptr %5, align 8
  store ptr %1, ptr %6, align 8
  store i32 %2, ptr %7, align 4
  call void @llvm.lifetime.start.p0(i64 4, ptr %8) #9
  call void @llvm.lifetime.start.p0(i64 4, ptr %9) #9
  call void @llvm.lifetime.start.p0(i64 8, ptr %10) #9
  call void @llvm.lifetime.start.p0(i64 8, ptr %11) #9
  call void @llvm.lifetime.start.p0(i64 8, ptr %12) #9
  call void @llvm.lifetime.start.p0(i64 4, ptr %13) #9
  %15 = load ptr, ptr %5, align 8
  %16 = load i32, ptr %7, align 4
  %17 = call zeroext i1 @tvb_offset_exists(ptr noundef %15, i32 noundef %16)
  br i1 %17, label %18, label %55

18:                                               ; preds = %3
  %19 = load ptr, ptr %5, align 8
  %20 = load i32, ptr %7, align 4
  %21 = call i32 @tvb_find_line_end(ptr noundef %19, i32 noundef %20, i32 noundef -1, ptr noundef %8, i1 noundef zeroext false)
  store i32 %21, ptr %9, align 4
  %22 = load i32, ptr %9, align 4
  %23 = icmp slt i32 %22, 0
  br i1 %23, label %24, label %25

24:                                               ; preds = %18
  store i32 -1, ptr %4, align 4
  store i32 1, ptr %14, align 4
  br label %57

25:                                               ; preds = %18
  %26 = load ptr, ptr %5, align 8
  %27 = load i32, ptr %7, align 4
  %28 = load i32, ptr %9, align 4
  %29 = call ptr @tvb_get_ptr(ptr noundef %26, i32 noundef %27, i32 noundef %28)
  store ptr %29, ptr %10, align 8
  %30 = load ptr, ptr %10, align 8
  %31 = load i32, ptr %9, align 4
  %32 = sext i32 %31 to i64
  %33 = getelementptr i8, ptr %30, i64 %32
  store ptr %33, ptr %11, align 8
  %34 = load ptr, ptr %10, align 8
  %35 = load ptr, ptr %11, align 8
  %36 = call i32 @get_token_len(ptr noundef %34, ptr noundef %35, ptr noundef %12)
  store i32 %36, ptr %13, align 4
  %37 = load i32, ptr %13, align 4
  %38 = icmp eq i32 %37, 0
  br i1 %38, label %39, label %40

39:                                               ; preds = %25
  store i32 -1, ptr %4, align 4
  store i32 1, ptr %14, align 4
  br label %57

40:                                               ; preds = %25
  %41 = load ptr, ptr %6, align 8
  %42 = load i32, ptr @hf_uint64_response, align 4
  %43 = load ptr, ptr %5, align 8
  %44 = load i32, ptr %7, align 4
  %45 = load i32, ptr %13, align 4
  %46 = call ptr @proto_tree_add_item(ptr noundef %41, i32 noundef %42, ptr noundef %43, i32 noundef %44, i32 noundef %45, i32 noundef 0)
  %47 = load ptr, ptr %10, align 8
  %48 = load ptr, ptr %11, align 8
  %49 = call i32 @get_token_len(ptr noundef %47, ptr noundef %48, ptr noundef %12)
  store i32 %49, ptr %13, align 4
  %50 = load i32, ptr %13, align 4
  %51 = icmp eq i32 %50, 0
  br i1 %51, label %52, label %54

52:                                               ; preds = %40
  %53 = load i32, ptr %8, align 4
  store i32 %53, ptr %4, align 4
  store i32 1, ptr %14, align 4
  br label %57

54:                                               ; preds = %40
  store i32 -1, ptr %4, align 4
  store i32 1, ptr %14, align 4
  br label %57

55:                                               ; preds = %3
  %56 = load i32, ptr %7, align 4
  store i32 %56, ptr %4, align 4
  store i32 1, ptr %14, align 4
  br label %57

57:                                               ; preds = %55, %54, %52, %39, %24
  call void @llvm.lifetime.end.p0(i64 4, ptr %13) #9
  call void @llvm.lifetime.end.p0(i64 8, ptr %12) #9
  call void @llvm.lifetime.end.p0(i64 8, ptr %11) #9
  call void @llvm.lifetime.end.p0(i64 8, ptr %10) #9
  call void @llvm.lifetime.end.p0(i64 4, ptr %9) #9
  call void @llvm.lifetime.end.p0(i64 4, ptr %8) #9
  %58 = load i32, ptr %4, align 4
  ret i32 %58
}