; Function Attrs: null_pointer_is_valid sspstrong uwtable
define internal fastcc i32 @incr_dissector(ptr noundef %0, ptr noundef %1, i32 noundef %2) unnamed_addr #0 {
  %4 = alloca i32, align 4
  %5 = alloca ptr, align 8
  call void @llvm.lifetime.start.p0(i64 4, ptr nonnull %4) #8
  call void @llvm.lifetime.start.p0(i64 8, ptr nonnull %5) #8
  %6 = tail call zeroext i1 @tvb_offset_exists(ptr noundef %0, i32 noundef %2)
  br i1 %6, label %7, label %22

7:                                                ; preds = %3
  %8 = call i32 @tvb_find_line_end(ptr noundef %0, i32 noundef %2, i32 noundef -1, ptr noundef nonnull %4, i1 noundef zeroext false)
  %9 = icmp slt i32 %8, 0
  br i1 %9, label %22, label %10

10:                                               ; preds = %7
  %11 = call ptr @tvb_get_ptr(ptr noundef %0, i32 noundef %2, i32 noundef %8)
  %12 = zext nneg i32 %8 to i64
  %13 = getelementptr i8, ptr %11, i64 %12
  %14 = call i32 @get_token_len(ptr noundef %11, ptr noundef %13, ptr noundef nonnull %5)
  %15 = icmp eq i32 %14, 0
  br i1 %15, label %22, label %16

16:                                               ; preds = %10
  %17 = load i32, ptr @hf_uint64_response, align 4
  %18 = call ptr @proto_tree_add_item(ptr noundef %1, i32 noundef %17, ptr noundef %0, i32 noundef %2, i32 noundef %14, i32 noundef 0)
  %19 = call i32 @get_token_len(ptr noundef %11, ptr noundef %13, ptr noundef nonnull %5)
  %20 = icmp eq i32 %19, 0
  %21 = load i32, ptr %4, align 4
  %spec.select = select i1 %20, i32 %21, i32 -1
  br label %22

22:                                               ; preds = %16, %3, %10, %7
  %.0 = phi i32 [ -1, %7 ], [ -1, %10 ], [ %2, %3 ], [ %spec.select, %16 ]
  call void @llvm.lifetime.end.p0(i64 8, ptr nonnull %5) #8
  call void @llvm.lifetime.end.p0(i64 4, ptr nonnull %4) #8
  ret i32 %.0
}